
our_o3_gcc:     file format elf64-x86-64


Disassembly of section .init:

0000000000000688 <_init>:
 688:	48 83 ec 08          	sub    $0x8,%rsp
 68c:	48 8b 05 55 19 20 00 	mov    0x201955(%rip),%rax        # 201fe8 <__gmon_start__>
 693:	48 85 c0             	test   %rax,%rax
 696:	74 02                	je     69a <_init+0x12>
 698:	ff d0                	callq  *%rax
 69a:	48 83 c4 08          	add    $0x8,%rsp
 69e:	c3                   	retq   

Disassembly of section .plt:

00000000000006a0 <.plt>:
 6a0:	ff 35 ea 18 20 00    	pushq  0x2018ea(%rip)        # 201f90 <_GLOBAL_OFFSET_TABLE_+0x8>
 6a6:	ff 25 ec 18 20 00    	jmpq   *0x2018ec(%rip)        # 201f98 <_GLOBAL_OFFSET_TABLE_+0x10>
 6ac:	0f 1f 40 00          	nopl   0x0(%rax)

00000000000006b0 <puts@plt>:
 6b0:	ff 25 ea 18 20 00    	jmpq   *0x2018ea(%rip)        # 201fa0 <puts@GLIBC_2.2.5>
 6b6:	68 00 00 00 00       	pushq  $0x0
 6bb:	e9 e0 ff ff ff       	jmpq   6a0 <.plt>

00000000000006c0 <__stack_chk_fail@plt>:
 6c0:	ff 25 e2 18 20 00    	jmpq   *0x2018e2(%rip)        # 201fa8 <__stack_chk_fail@GLIBC_2.4>
 6c6:	68 01 00 00 00       	pushq  $0x1
 6cb:	e9 d0 ff ff ff       	jmpq   6a0 <.plt>

00000000000006d0 <printf@plt>:
 6d0:	ff 25 da 18 20 00    	jmpq   *0x2018da(%rip)        # 201fb0 <printf@GLIBC_2.2.5>
 6d6:	68 02 00 00 00       	pushq  $0x2
 6db:	e9 c0 ff ff ff       	jmpq   6a0 <.plt>

00000000000006e0 <gettimeofday@plt>:
 6e0:	ff 25 d2 18 20 00    	jmpq   *0x2018d2(%rip)        # 201fb8 <gettimeofday@GLIBC_2.2.5>
 6e6:	68 03 00 00 00       	pushq  $0x3
 6eb:	e9 b0 ff ff ff       	jmpq   6a0 <.plt>

00000000000006f0 <memset@plt>:
 6f0:	ff 25 ca 18 20 00    	jmpq   *0x2018ca(%rip)        # 201fc0 <memset@GLIBC_2.2.5>
 6f6:	68 04 00 00 00       	pushq  $0x4
 6fb:	e9 a0 ff ff ff       	jmpq   6a0 <.plt>

0000000000000700 <memcpy@plt>:
 700:	ff 25 c2 18 20 00    	jmpq   *0x2018c2(%rip)        # 201fc8 <memcpy@GLIBC_2.14>
 706:	68 05 00 00 00       	pushq  $0x5
 70b:	e9 90 ff ff ff       	jmpq   6a0 <.plt>

0000000000000710 <malloc@plt>:
 710:	ff 25 ba 18 20 00    	jmpq   *0x2018ba(%rip)        # 201fd0 <malloc@GLIBC_2.2.5>
 716:	68 06 00 00 00       	pushq  $0x6
 71b:	e9 80 ff ff ff       	jmpq   6a0 <.plt>

Disassembly of section .plt.got:

0000000000000720 <__cxa_finalize@plt>:
 720:	ff 25 d2 18 20 00    	jmpq   *0x2018d2(%rip)        # 201ff8 <__cxa_finalize@GLIBC_2.2.5>
 726:	66 90                	xchg   %ax,%ax

Disassembly of section .text:

0000000000000730 <_start>:
     730:	31 ed                	xor    %ebp,%ebp
     732:	49 89 d1             	mov    %rdx,%r9
     735:	5e                   	pop    %rsi
     736:	48 89 e2             	mov    %rsp,%rdx
     739:	48 83 e4 f0          	and    $0xfffffffffffffff0,%rsp
     73d:	50                   	push   %rax
     73e:	54                   	push   %rsp
     73f:	4c 8d 05 3a 0e 00 00 	lea    0xe3a(%rip),%r8        # 1580 <__libc_csu_fini>
     746:	48 8d 0d c3 0d 00 00 	lea    0xdc3(%rip),%rcx        # 1510 <__libc_csu_init>
     74d:	48 8d 3d 19 0d 00 00 	lea    0xd19(%rip),%rdi        # 146d <main>
     754:	ff 15 86 18 20 00    	callq  *0x201886(%rip)        # 201fe0 <__libc_start_main@GLIBC_2.2.5>
     75a:	f4                   	hlt    
     75b:	0f 1f 44 00 00       	nopl   0x0(%rax,%rax,1)

0000000000000760 <deregister_tm_clones>:
     760:	48 8d 3d b1 18 20 00 	lea    0x2018b1(%rip),%rdi        # 202018 <__TMC_END__>
     767:	55                   	push   %rbp
     768:	48 8d 05 a9 18 20 00 	lea    0x2018a9(%rip),%rax        # 202018 <__TMC_END__>
     76f:	48 39 f8             	cmp    %rdi,%rax
     772:	48 89 e5             	mov    %rsp,%rbp
     775:	74 19                	je     790 <deregister_tm_clones+0x30>
     777:	48 8b 05 5a 18 20 00 	mov    0x20185a(%rip),%rax        # 201fd8 <_ITM_deregisterTMCloneTable>
     77e:	48 85 c0             	test   %rax,%rax
     781:	74 0d                	je     790 <deregister_tm_clones+0x30>
     783:	5d                   	pop    %rbp
     784:	ff e0                	jmpq   *%rax
     786:	66 2e 0f 1f 84 00 00 	nopw   %cs:0x0(%rax,%rax,1)
     78d:	00 00 00 
     790:	5d                   	pop    %rbp
     791:	c3                   	retq   
     792:	0f 1f 40 00          	nopl   0x0(%rax)
     796:	66 2e 0f 1f 84 00 00 	nopw   %cs:0x0(%rax,%rax,1)
     79d:	00 00 00 

00000000000007a0 <register_tm_clones>:
     7a0:	48 8d 3d 71 18 20 00 	lea    0x201871(%rip),%rdi        # 202018 <__TMC_END__>
     7a7:	48 8d 35 6a 18 20 00 	lea    0x20186a(%rip),%rsi        # 202018 <__TMC_END__>
     7ae:	55                   	push   %rbp
     7af:	48 29 fe             	sub    %rdi,%rsi
     7b2:	48 89 e5             	mov    %rsp,%rbp
     7b5:	48 c1 fe 03          	sar    $0x3,%rsi
     7b9:	48 89 f0             	mov    %rsi,%rax
     7bc:	48 c1 e8 3f          	shr    $0x3f,%rax
     7c0:	48 01 c6             	add    %rax,%rsi
     7c3:	48 d1 fe             	sar    %rsi
     7c6:	74 18                	je     7e0 <register_tm_clones+0x40>
     7c8:	48 8b 05 21 18 20 00 	mov    0x201821(%rip),%rax        # 201ff0 <_ITM_registerTMCloneTable>
     7cf:	48 85 c0             	test   %rax,%rax
     7d2:	74 0c                	je     7e0 <register_tm_clones+0x40>
     7d4:	5d                   	pop    %rbp
     7d5:	ff e0                	jmpq   *%rax
     7d7:	66 0f 1f 84 00 00 00 	nopw   0x0(%rax,%rax,1)
     7de:	00 00 
     7e0:	5d                   	pop    %rbp
     7e1:	c3                   	retq   
     7e2:	0f 1f 40 00          	nopl   0x0(%rax)
     7e6:	66 2e 0f 1f 84 00 00 	nopw   %cs:0x0(%rax,%rax,1)
     7ed:	00 00 00 

00000000000007f0 <__do_global_dtors_aux>:
     7f0:	80 3d 29 18 20 00 00 	cmpb   $0x0,0x201829(%rip)        # 202020 <completed.7697>
     7f7:	75 2f                	jne    828 <__do_global_dtors_aux+0x38>
     7f9:	48 83 3d f7 17 20 00 	cmpq   $0x0,0x2017f7(%rip)        # 201ff8 <__cxa_finalize@GLIBC_2.2.5>
     800:	00 
     801:	55                   	push   %rbp
     802:	48 89 e5             	mov    %rsp,%rbp
     805:	74 0c                	je     813 <__do_global_dtors_aux+0x23>
     807:	48 8b 3d fa 17 20 00 	mov    0x2017fa(%rip),%rdi        # 202008 <__dso_handle>
     80e:	e8 0d ff ff ff       	callq  720 <__cxa_finalize@plt>
     813:	e8 48 ff ff ff       	callq  760 <deregister_tm_clones>
     818:	c6 05 01 18 20 00 01 	movb   $0x1,0x201801(%rip)        # 202020 <completed.7697>
     81f:	5d                   	pop    %rbp
     820:	c3                   	retq   
     821:	0f 1f 80 00 00 00 00 	nopl   0x0(%rax)
     828:	f3 c3                	repz retq 
     82a:	66 0f 1f 44 00 00    	nopw   0x0(%rax,%rax,1)

0000000000000830 <frame_dummy>:
     830:	55                   	push   %rbp
     831:	48 89 e5             	mov    %rsp,%rbp
     834:	5d                   	pop    %rbp
     835:	e9 66 ff ff ff       	jmpq   7a0 <register_tm_clones>

000000000000083a <bit_reverse>:
     83a:	55                   	push   %rbp
     83b:	48 89 e5             	mov    %rsp,%rbp
     83e:	89 f8                	mov    %edi,%eax
     840:	89 c2                	mov    %eax,%edx
     842:	d1 ea                	shr    %edx
     844:	81 e2 55 55 55 55    	and    $0x55555555,%edx
     84a:	01 c0                	add    %eax,%eax
     84c:	25 aa aa aa aa       	and    $0xaaaaaaaa,%eax
     851:	09 d0                	or     %edx,%eax
     853:	89 c2                	mov    %eax,%edx
     855:	c1 ea 02             	shr    $0x2,%edx
     858:	81 e2 33 33 33 33    	and    $0x33333333,%edx
     85e:	c1 e0 02             	shl    $0x2,%eax
     861:	25 cc cc cc cc       	and    $0xcccccccc,%eax
     866:	09 d0                	or     %edx,%eax
     868:	89 c2                	mov    %eax,%edx
     86a:	c1 ea 04             	shr    $0x4,%edx
     86d:	81 e2 0f 0f 0f 0f    	and    $0xf0f0f0f,%edx
     873:	c1 e0 04             	shl    $0x4,%eax
     876:	25 f0 f0 f0 f0       	and    $0xf0f0f0f0,%eax
     87b:	09 d0                	or     %edx,%eax
     87d:	89 c2                	mov    %eax,%edx
     87f:	c1 ea 08             	shr    $0x8,%edx
     882:	81 e2 ff 00 ff 00    	and    $0xff00ff,%edx
     888:	c1 e0 08             	shl    $0x8,%eax
     88b:	25 00 ff 00 ff       	and    $0xff00ff00,%eax
     890:	09 d0                	or     %edx,%eax
     892:	89 c2                	mov    %eax,%edx
     894:	c1 fa 10             	sar    $0x10,%edx
     897:	c1 e0 10             	shl    $0x10,%eax
     89a:	09 d0                	or     %edx,%eax
     89c:	5d                   	pop    %rbp
     89d:	c3                   	retq   

000000000000089e <fft>:
     89e:	55                   	push   %rbp
     89f:	48 89 e5             	mov    %rsp,%rbp
     8a2:	41 57                	push   %r15
     8a4:	41 56                	push   %r14
     8a6:	41 55                	push   %r13
     8a8:	41 54                	push   %r12
     8aa:	48 83 ec 50          	sub    $0x50,%rsp
     8ae:	48 89 7d 98          	mov    %rdi,-0x68(%rbp)
     8b2:	89 75 94             	mov    %esi,-0x6c(%rbp)
     8b5:	64 48 8b 04 25 28 00 	mov    %fs:0x28,%rax
     8bc:	00 00 
     8be:	48 89 45 d8          	mov    %rax,-0x28(%rbp)
     8c2:	31 c0                	xor    %eax,%eax
     8c4:	8b 45 94             	mov    -0x6c(%rbp),%eax
     8c7:	f3 0f bc c0          	tzcnt  %eax,%eax
     8cb:	89 45 b0             	mov    %eax,-0x50(%rbp)
     8ce:	c7 45 ac 00 00 00 00 	movl   $0x0,-0x54(%rbp)
     8d5:	e9 17 01 00 00       	jmpq   9f1 <fft+0x153>
     8da:	8b 45 ac             	mov    -0x54(%rbp),%eax
     8dd:	89 c7                	mov    %eax,%edi
     8df:	e8 56 ff ff ff       	callq  83a <bit_reverse>
     8e4:	89 c2                	mov    %eax,%edx
     8e6:	b8 20 00 00 00       	mov    $0x20,%eax
     8eb:	2b 45 b0             	sub    -0x50(%rbp),%eax
     8ee:	89 c1                	mov    %eax,%ecx
     8f0:	d3 ea                	shr    %cl,%edx
     8f2:	89 d0                	mov    %edx,%eax
     8f4:	89 45 b4             	mov    %eax,-0x4c(%rbp)
     8f7:	8b 45 ac             	mov    -0x54(%rbp),%eax
     8fa:	39 45 b4             	cmp    %eax,-0x4c(%rbp)
     8fd:	0f 83 ea 00 00 00    	jae    9ed <fft+0x14f>
     903:	48 89 e0             	mov    %rsp,%rax
     906:	48 89 c6             	mov    %rax,%rsi
     909:	8b 45 b0             	mov    -0x50(%rbp),%eax
     90c:	ba 20 00 00 00       	mov    $0x20,%edx
     911:	48 29 c2             	sub    %rax,%rdx
     914:	48 89 d0             	mov    %rdx,%rax
     917:	48 89 c2             	mov    %rax,%rdx
     91a:	48 83 ea 01          	sub    $0x1,%rdx
     91e:	48 89 55 c8          	mov    %rdx,-0x38(%rbp)
     922:	49 89 c4             	mov    %rax,%r12
     925:	41 bd 00 00 00 00    	mov    $0x0,%r13d
     92b:	49 89 c6             	mov    %rax,%r14
     92e:	41 bf 00 00 00 00    	mov    $0x0,%r15d
     934:	48 c1 e0 03          	shl    $0x3,%rax
     938:	48 8d 50 07          	lea    0x7(%rax),%rdx
     93c:	b8 10 00 00 00       	mov    $0x10,%eax
     941:	48 83 e8 01          	sub    $0x1,%rax
     945:	48 01 d0             	add    %rdx,%rax
     948:	bf 10 00 00 00       	mov    $0x10,%edi
     94d:	ba 00 00 00 00       	mov    $0x0,%edx
     952:	48 f7 f7             	div    %rdi
     955:	48 6b c0 10          	imul   $0x10,%rax,%rax
     959:	48 29 c4             	sub    %rax,%rsp
     95c:	48 89 e0             	mov    %rsp,%rax
     95f:	48 83 c0 07          	add    $0x7,%rax
     963:	48 c1 e8 03          	shr    $0x3,%rax
     967:	48 c1 e0 03          	shl    $0x3,%rax
     96b:	48 89 45 d0          	mov    %rax,-0x30(%rbp)
     96f:	8b 45 ac             	mov    -0x54(%rbp),%eax
     972:	48 98                	cltq   
     974:	48 8d 14 c5 00 00 00 	lea    0x0(,%rax,8),%rdx
     97b:	00 
     97c:	48 8b 45 98          	mov    -0x68(%rbp),%rax
     980:	48 01 d0             	add    %rdx,%rax
     983:	f2 0f 10 00          	movsd  (%rax),%xmm0
     987:	48 8b 45 d0          	mov    -0x30(%rbp),%rax
     98b:	8b 55 ac             	mov    -0x54(%rbp),%edx
     98e:	48 63 d2             	movslq %edx,%rdx
     991:	f2 0f 11 04 d0       	movsd  %xmm0,(%rax,%rdx,8)
     996:	8b 45 b4             	mov    -0x4c(%rbp),%eax
     999:	48 8d 14 c5 00 00 00 	lea    0x0(,%rax,8),%rdx
     9a0:	00 
     9a1:	48 8b 45 98          	mov    -0x68(%rbp),%rax
     9a5:	48 01 c2             	add    %rax,%rdx
     9a8:	8b 45 ac             	mov    -0x54(%rbp),%eax
     9ab:	48 98                	cltq   
     9ad:	48 8d 0c c5 00 00 00 	lea    0x0(,%rax,8),%rcx
     9b4:	00 
     9b5:	48 8b 45 98          	mov    -0x68(%rbp),%rax
     9b9:	48 01 c8             	add    %rcx,%rax
     9bc:	f2 0f 10 02          	movsd  (%rdx),%xmm0
     9c0:	f2 0f 11 00          	movsd  %xmm0,(%rax)
     9c4:	8b 45 b4             	mov    -0x4c(%rbp),%eax
     9c7:	48 8d 14 c5 00 00 00 	lea    0x0(,%rax,8),%rdx
     9ce:	00 
     9cf:	48 8b 45 98          	mov    -0x68(%rbp),%rax
     9d3:	48 8d 0c 02          	lea    (%rdx,%rax,1),%rcx
     9d7:	48 8b 45 d0          	mov    -0x30(%rbp),%rax
     9db:	8b 55 ac             	mov    -0x54(%rbp),%edx
     9de:	48 63 d2             	movslq %edx,%rdx
     9e1:	f2 0f 10 04 d0       	movsd  (%rax,%rdx,8),%xmm0
     9e6:	f2 0f 11 01          	movsd  %xmm0,(%rcx)
     9ea:	48 89 f4             	mov    %rsi,%rsp
     9ed:	83 45 ac 01          	addl   $0x1,-0x54(%rbp)
     9f1:	8b 45 ac             	mov    -0x54(%rbp),%eax
     9f4:	3b 45 94             	cmp    -0x6c(%rbp),%eax
     9f7:	0f 8c dd fe ff ff    	jl     8da <fft+0x3c>
     9fd:	ba 40 00 00 00       	mov    $0x40,%edx
     a02:	be 00 00 00 00       	mov    $0x0,%esi
     a07:	48 8d 3d 32 17 20 00 	lea    0x201732(%rip),%rdi        # 202140 <X_i>
     a0e:	e8 dd fc ff ff       	callq  6f0 <memset@plt>
     a13:	ba 50 00 00 00       	mov    $0x50,%edx
     a18:	be 00 00 00 00       	mov    $0x0,%esi
     a1d:	48 8d 3d 1c 16 20 00 	lea    0x20161c(%rip),%rdi        # 202040 <temp_i>
     a24:	e8 c7 fc ff ff       	callq  6f0 <memset@plt>
     a29:	48 8b 45 98          	mov    -0x68(%rbp),%rax
     a2d:	ba 40 00 00 00       	mov    $0x40,%edx
     a32:	48 89 c6             	mov    %rax,%rsi
     a35:	48 8d 3d a4 16 20 00 	lea    0x2016a4(%rip),%rdi        # 2020e0 <temp_r>
     a3c:	e8 bf fc ff ff       	callq  700 <memcpy@plt>
     a41:	c7 45 a8 00 00 00 00 	movl   $0x0,-0x58(%rbp)
     a48:	e9 b7 00 00 00       	jmpq   b04 <fft+0x266>
     a4d:	8b 45 a8             	mov    -0x58(%rbp),%eax
     a50:	01 c0                	add    %eax,%eax
     a52:	48 98                	cltq   
     a54:	48 8d 14 c5 00 00 00 	lea    0x0(,%rax,8),%rdx
     a5b:	00 
     a5c:	48 8d 05 7d 16 20 00 	lea    0x20167d(%rip),%rax        # 2020e0 <temp_r>
     a63:	f2 0f 10 0c 02       	movsd  (%rdx,%rax,1),%xmm1
     a68:	8b 45 a8             	mov    -0x58(%rbp),%eax
     a6b:	01 c0                	add    %eax,%eax
     a6d:	83 c0 01             	add    $0x1,%eax
     a70:	48 98                	cltq   
     a72:	48 8d 14 c5 00 00 00 	lea    0x0(,%rax,8),%rdx
     a79:	00 
     a7a:	48 8d 05 5f 16 20 00 	lea    0x20165f(%rip),%rax        # 2020e0 <temp_r>
     a81:	f2 0f 10 04 02       	movsd  (%rdx,%rax,1),%xmm0
     a86:	8b 45 a8             	mov    -0x58(%rbp),%eax
     a89:	01 c0                	add    %eax,%eax
     a8b:	f2 0f 58 c1          	addsd  %xmm1,%xmm0
     a8f:	48 98                	cltq   
     a91:	48 8d 14 c5 00 00 00 	lea    0x0(,%rax,8),%rdx
     a98:	00 
     a99:	48 8d 05 00 16 20 00 	lea    0x201600(%rip),%rax        # 2020a0 <X_r>
     aa0:	f2 0f 11 04 02       	movsd  %xmm0,(%rdx,%rax,1)
     aa5:	8b 45 a8             	mov    -0x58(%rbp),%eax
     aa8:	01 c0                	add    %eax,%eax
     aaa:	48 98                	cltq   
     aac:	48 8d 14 c5 00 00 00 	lea    0x0(,%rax,8),%rdx
     ab3:	00 
     ab4:	48 8d 05 25 16 20 00 	lea    0x201625(%rip),%rax        # 2020e0 <temp_r>
     abb:	f2 0f 10 04 02       	movsd  (%rdx,%rax,1),%xmm0
     ac0:	8b 45 a8             	mov    -0x58(%rbp),%eax
     ac3:	01 c0                	add    %eax,%eax
     ac5:	83 c0 01             	add    $0x1,%eax
     ac8:	48 98                	cltq   
     aca:	48 8d 14 c5 00 00 00 	lea    0x0(,%rax,8),%rdx
     ad1:	00 
     ad2:	48 8d 05 07 16 20 00 	lea    0x201607(%rip),%rax        # 2020e0 <temp_r>
     ad9:	f2 0f 10 0c 02       	movsd  (%rdx,%rax,1),%xmm1
     ade:	8b 45 a8             	mov    -0x58(%rbp),%eax
     ae1:	01 c0                	add    %eax,%eax
     ae3:	83 c0 01             	add    $0x1,%eax
     ae6:	f2 0f 5c c1          	subsd  %xmm1,%xmm0
     aea:	48 98                	cltq   
     aec:	48 8d 14 c5 00 00 00 	lea    0x0(,%rax,8),%rdx
     af3:	00 
     af4:	48 8d 05 a5 15 20 00 	lea    0x2015a5(%rip),%rax        # 2020a0 <X_r>
     afb:	f2 0f 11 04 02       	movsd  %xmm0,(%rdx,%rax,1)
     b00:	83 45 a8 01          	addl   $0x1,-0x58(%rbp)
     b04:	83 7d a8 03          	cmpl   $0x3,-0x58(%rbp)
     b08:	0f 8e 3f ff ff ff    	jle    a4d <fft+0x1af>
     b0e:	48 8b 05 8b 15 20 00 	mov    0x20158b(%rip),%rax        # 2020a0 <X_r>
     b15:	48 8b 15 8c 15 20 00 	mov    0x20158c(%rip),%rdx        # 2020a8 <X_r+0x8>
     b1c:	48 89 05 bd 15 20 00 	mov    %rax,0x2015bd(%rip)        # 2020e0 <temp_r>
     b23:	48 89 15 be 15 20 00 	mov    %rdx,0x2015be(%rip)        # 2020e8 <temp_r+0x8>
     b2a:	48 8b 05 7f 15 20 00 	mov    0x20157f(%rip),%rax        # 2020b0 <X_r+0x10>
     b31:	48 8b 15 80 15 20 00 	mov    0x201580(%rip),%rdx        # 2020b8 <X_r+0x18>
     b38:	48 89 05 b1 15 20 00 	mov    %rax,0x2015b1(%rip)        # 2020f0 <temp_r+0x10>
     b3f:	48 89 15 b2 15 20 00 	mov    %rdx,0x2015b2(%rip)        # 2020f8 <temp_r+0x18>
     b46:	48 8b 05 73 15 20 00 	mov    0x201573(%rip),%rax        # 2020c0 <X_r+0x20>
     b4d:	48 8b 15 74 15 20 00 	mov    0x201574(%rip),%rdx        # 2020c8 <X_r+0x28>
     b54:	48 89 05 a5 15 20 00 	mov    %rax,0x2015a5(%rip)        # 202100 <temp_r+0x20>
     b5b:	48 89 15 a6 15 20 00 	mov    %rdx,0x2015a6(%rip)        # 202108 <temp_r+0x28>
     b62:	48 8b 05 67 15 20 00 	mov    0x201567(%rip),%rax        # 2020d0 <X_r+0x30>
     b69:	48 8b 15 68 15 20 00 	mov    0x201568(%rip),%rdx        # 2020d8 <X_r+0x38>
     b70:	48 89 05 99 15 20 00 	mov    %rax,0x201599(%rip)        # 202110 <temp_r+0x30>
     b77:	48 89 15 9a 15 20 00 	mov    %rdx,0x20159a(%rip)        # 202118 <temp_r+0x38>
     b7e:	48 8b 05 bb 15 20 00 	mov    0x2015bb(%rip),%rax        # 202140 <X_i>
     b85:	48 8b 15 bc 15 20 00 	mov    0x2015bc(%rip),%rdx        # 202148 <X_i+0x8>
     b8c:	48 89 05 ad 14 20 00 	mov    %rax,0x2014ad(%rip)        # 202040 <temp_i>
     b93:	48 89 15 ae 14 20 00 	mov    %rdx,0x2014ae(%rip)        # 202048 <temp_i+0x8>
     b9a:	48 8b 05 af 15 20 00 	mov    0x2015af(%rip),%rax        # 202150 <X_i+0x10>
     ba1:	48 8b 15 b0 15 20 00 	mov    0x2015b0(%rip),%rdx        # 202158 <X_i+0x18>
     ba8:	48 89 05 a1 14 20 00 	mov    %rax,0x2014a1(%rip)        # 202050 <temp_i+0x10>
     baf:	48 89 15 a2 14 20 00 	mov    %rdx,0x2014a2(%rip)        # 202058 <temp_i+0x18>
     bb6:	48 8b 05 a3 15 20 00 	mov    0x2015a3(%rip),%rax        # 202160 <X_i+0x20>
     bbd:	48 8b 15 a4 15 20 00 	mov    0x2015a4(%rip),%rdx        # 202168 <X_i+0x28>
     bc4:	48 89 05 95 14 20 00 	mov    %rax,0x201495(%rip)        # 202060 <temp_i+0x20>
     bcb:	48 89 15 96 14 20 00 	mov    %rdx,0x201496(%rip)        # 202068 <temp_i+0x28>
     bd2:	48 8b 05 97 15 20 00 	mov    0x201597(%rip),%rax        # 202170 <X_i+0x30>
     bd9:	48 8b 15 98 15 20 00 	mov    0x201598(%rip),%rdx        # 202178 <X_i+0x38>
     be0:	48 89 05 89 14 20 00 	mov    %rax,0x201489(%rip)        # 202070 <temp_i+0x30>
     be7:	48 89 15 8a 14 20 00 	mov    %rdx,0x20148a(%rip)        # 202078 <temp_i+0x38>
     bee:	f2 0f 10 0d 02 15 20 	movsd  0x201502(%rip),%xmm1        # 2020f8 <temp_r+0x18>
     bf5:	00 
     bf6:	f3 0f 7e 05 72 0a 00 	movq   0xa72(%rip),%xmm0        # 1670 <w+0xd0>
     bfd:	00 
     bfe:	66 0f 57 c1          	xorpd  %xmm1,%xmm0
     c02:	f2 0f 11 05 4e 14 20 	movsd  %xmm0,0x20144e(%rip)        # 202058 <temp_i+0x18>
     c09:	00 
     c0a:	66 0f ef c0          	pxor   %xmm0,%xmm0
     c0e:	f2 0f 11 05 e2 14 20 	movsd  %xmm0,0x2014e2(%rip)        # 2020f8 <temp_r+0x18>
     c15:	00 
     c16:	f2 0f 10 0d fa 14 20 	movsd  0x2014fa(%rip),%xmm1        # 202118 <temp_r+0x38>
     c1d:	00 
     c1e:	f3 0f 7e 05 4a 0a 00 	movq   0xa4a(%rip),%xmm0        # 1670 <w+0xd0>
     c25:	00 
     c26:	66 0f 57 c1          	xorpd  %xmm1,%xmm0
     c2a:	f2 0f 11 05 46 14 20 	movsd  %xmm0,0x201446(%rip)        # 202078 <temp_i+0x38>
     c31:	00 
     c32:	66 0f ef c0          	pxor   %xmm0,%xmm0
     c36:	f2 0f 11 05 da 14 20 	movsd  %xmm0,0x2014da(%rip)        # 202118 <temp_r+0x38>
     c3d:	00 
     c3e:	c7 45 a4 00 00 00 00 	movl   $0x0,-0x5c(%rbp)
     c45:	e9 41 02 00 00       	jmpq   e8b <fft+0x5ed>
     c4a:	8b 45 a4             	mov    -0x5c(%rbp),%eax
     c4d:	c1 e0 02             	shl    $0x2,%eax
     c50:	48 98                	cltq   
     c52:	48 8d 14 c5 00 00 00 	lea    0x0(,%rax,8),%rdx
     c59:	00 
     c5a:	48 8d 05 7f 14 20 00 	lea    0x20147f(%rip),%rax        # 2020e0 <temp_r>
     c61:	f2 0f 10 0c 02       	movsd  (%rdx,%rax,1),%xmm1
     c66:	8b 45 a4             	mov    -0x5c(%rbp),%eax
     c69:	c1 e0 02             	shl    $0x2,%eax
     c6c:	83 c0 02             	add    $0x2,%eax
     c6f:	48 98                	cltq   
     c71:	48 8d 14 c5 00 00 00 	lea    0x0(,%rax,8),%rdx
     c78:	00 
     c79:	48 8d 05 60 14 20 00 	lea    0x201460(%rip),%rax        # 2020e0 <temp_r>
     c80:	f2 0f 10 04 02       	movsd  (%rdx,%rax,1),%xmm0
     c85:	8b 45 a4             	mov    -0x5c(%rbp),%eax
     c88:	c1 e0 02             	shl    $0x2,%eax
     c8b:	f2 0f 58 c1          	addsd  %xmm1,%xmm0
     c8f:	48 98                	cltq   
     c91:	48 8d 14 c5 00 00 00 	lea    0x0(,%rax,8),%rdx
     c98:	00 
     c99:	48 8d 05 00 14 20 00 	lea    0x201400(%rip),%rax        # 2020a0 <X_r>
     ca0:	f2 0f 11 04 02       	movsd  %xmm0,(%rdx,%rax,1)
     ca5:	8b 45 a4             	mov    -0x5c(%rbp),%eax
     ca8:	c1 e0 02             	shl    $0x2,%eax
     cab:	48 98                	cltq   
     cad:	48 8d 14 c5 00 00 00 	lea    0x0(,%rax,8),%rdx
     cb4:	00 
     cb5:	48 8d 05 24 14 20 00 	lea    0x201424(%rip),%rax        # 2020e0 <temp_r>
     cbc:	f2 0f 10 04 02       	movsd  (%rdx,%rax,1),%xmm0
     cc1:	8b 45 a4             	mov    -0x5c(%rbp),%eax
     cc4:	c1 e0 02             	shl    $0x2,%eax
     cc7:	83 c0 02             	add    $0x2,%eax
     cca:	48 98                	cltq   
     ccc:	48 8d 14 c5 00 00 00 	lea    0x0(,%rax,8),%rdx
     cd3:	00 
     cd4:	48 8d 05 05 14 20 00 	lea    0x201405(%rip),%rax        # 2020e0 <temp_r>
     cdb:	f2 0f 10 0c 02       	movsd  (%rdx,%rax,1),%xmm1
     ce0:	8b 45 a4             	mov    -0x5c(%rbp),%eax
     ce3:	c1 e0 02             	shl    $0x2,%eax
     ce6:	83 c0 02             	add    $0x2,%eax
     ce9:	f2 0f 5c c1          	subsd  %xmm1,%xmm0
     ced:	48 98                	cltq   
     cef:	48 8d 14 c5 00 00 00 	lea    0x0(,%rax,8),%rdx
     cf6:	00 
     cf7:	48 8d 05 a2 13 20 00 	lea    0x2013a2(%rip),%rax        # 2020a0 <X_r>
     cfe:	f2 0f 11 04 02       	movsd  %xmm0,(%rdx,%rax,1)
     d03:	8b 45 a4             	mov    -0x5c(%rbp),%eax
     d06:	c1 e0 02             	shl    $0x2,%eax
     d09:	83 c0 01             	add    $0x1,%eax
     d0c:	48 98                	cltq   
     d0e:	48 8d 14 c5 00 00 00 	lea    0x0(,%rax,8),%rdx
     d15:	00 
     d16:	48 8d 05 c3 13 20 00 	lea    0x2013c3(%rip),%rax        # 2020e0 <temp_r>
     d1d:	f2 0f 10 0c 02       	movsd  (%rdx,%rax,1),%xmm1
     d22:	8b 45 a4             	mov    -0x5c(%rbp),%eax
     d25:	c1 e0 02             	shl    $0x2,%eax
     d28:	83 c0 03             	add    $0x3,%eax
     d2b:	48 98                	cltq   
     d2d:	48 8d 14 c5 00 00 00 	lea    0x0(,%rax,8),%rdx
     d34:	00 
     d35:	48 8d 05 a4 13 20 00 	lea    0x2013a4(%rip),%rax        # 2020e0 <temp_r>
     d3c:	f2 0f 10 04 02       	movsd  (%rdx,%rax,1),%xmm0
     d41:	8b 45 a4             	mov    -0x5c(%rbp),%eax
     d44:	c1 e0 02             	shl    $0x2,%eax
     d47:	83 c0 01             	add    $0x1,%eax
     d4a:	f2 0f 58 c1          	addsd  %xmm1,%xmm0
     d4e:	48 98                	cltq   
     d50:	48 8d 14 c5 00 00 00 	lea    0x0(,%rax,8),%rdx
     d57:	00 
     d58:	48 8d 05 41 13 20 00 	lea    0x201341(%rip),%rax        # 2020a0 <X_r>
     d5f:	f2 0f 11 04 02       	movsd  %xmm0,(%rdx,%rax,1)
     d64:	8b 45 a4             	mov    -0x5c(%rbp),%eax
     d67:	c1 e0 02             	shl    $0x2,%eax
     d6a:	83 c0 01             	add    $0x1,%eax
     d6d:	48 98                	cltq   
     d6f:	48 8d 14 c5 00 00 00 	lea    0x0(,%rax,8),%rdx
     d76:	00 
     d77:	48 8d 05 c2 12 20 00 	lea    0x2012c2(%rip),%rax        # 202040 <temp_i>
     d7e:	f2 0f 10 0c 02       	movsd  (%rdx,%rax,1),%xmm1
     d83:	8b 45 a4             	mov    -0x5c(%rbp),%eax
     d86:	c1 e0 02             	shl    $0x2,%eax
     d89:	83 c0 03             	add    $0x3,%eax
     d8c:	48 98                	cltq   
     d8e:	48 8d 14 c5 00 00 00 	lea    0x0(,%rax,8),%rdx
     d95:	00 
     d96:	48 8d 05 a3 12 20 00 	lea    0x2012a3(%rip),%rax        # 202040 <temp_i>
     d9d:	f2 0f 10 04 02       	movsd  (%rdx,%rax,1),%xmm0
     da2:	8b 45 a4             	mov    -0x5c(%rbp),%eax
     da5:	c1 e0 02             	shl    $0x2,%eax
     da8:	83 c0 01             	add    $0x1,%eax
     dab:	f2 0f 58 c1          	addsd  %xmm1,%xmm0
     daf:	48 98                	cltq   
     db1:	48 8d 14 c5 00 00 00 	lea    0x0(,%rax,8),%rdx
     db8:	00 
     db9:	48 8d 05 80 13 20 00 	lea    0x201380(%rip),%rax        # 202140 <X_i>
     dc0:	f2 0f 11 04 02       	movsd  %xmm0,(%rdx,%rax,1)
     dc5:	8b 45 a4             	mov    -0x5c(%rbp),%eax
     dc8:	c1 e0 02             	shl    $0x2,%eax
     dcb:	83 c0 01             	add    $0x1,%eax
     dce:	48 98                	cltq   
     dd0:	48 8d 14 c5 00 00 00 	lea    0x0(,%rax,8),%rdx
     dd7:	00 
     dd8:	48 8d 05 01 13 20 00 	lea    0x201301(%rip),%rax        # 2020e0 <temp_r>
     ddf:	f2 0f 10 04 02       	movsd  (%rdx,%rax,1),%xmm0
     de4:	8b 45 a4             	mov    -0x5c(%rbp),%eax
     de7:	c1 e0 02             	shl    $0x2,%eax
     dea:	83 c0 03             	add    $0x3,%eax
     ded:	48 98                	cltq   
     def:	48 8d 14 c5 00 00 00 	lea    0x0(,%rax,8),%rdx
     df6:	00 
     df7:	48 8d 05 e2 12 20 00 	lea    0x2012e2(%rip),%rax        # 2020e0 <temp_r>
     dfe:	f2 0f 10 0c 02       	movsd  (%rdx,%rax,1),%xmm1
     e03:	8b 45 a4             	mov    -0x5c(%rbp),%eax
     e06:	c1 e0 02             	shl    $0x2,%eax
     e09:	83 c0 03             	add    $0x3,%eax
     e0c:	f2 0f 5c c1          	subsd  %xmm1,%xmm0
     e10:	48 98                	cltq   
     e12:	48 8d 14 c5 00 00 00 	lea    0x0(,%rax,8),%rdx
     e19:	00 
     e1a:	48 8d 05 7f 12 20 00 	lea    0x20127f(%rip),%rax        # 2020a0 <X_r>
     e21:	f2 0f 11 04 02       	movsd  %xmm0,(%rdx,%rax,1)
     e26:	8b 45 a4             	mov    -0x5c(%rbp),%eax
     e29:	c1 e0 02             	shl    $0x2,%eax
     e2c:	83 c0 01             	add    $0x1,%eax
     e2f:	48 98                	cltq   
     e31:	48 8d 14 c5 00 00 00 	lea    0x0(,%rax,8),%rdx
     e38:	00 
     e39:	48 8d 05 00 12 20 00 	lea    0x201200(%rip),%rax        # 202040 <temp_i>
     e40:	f2 0f 10 04 02       	movsd  (%rdx,%rax,1),%xmm0
     e45:	8b 45 a4             	mov    -0x5c(%rbp),%eax
     e48:	c1 e0 02             	shl    $0x2,%eax
     e4b:	83 c0 03             	add    $0x3,%eax
     e4e:	48 98                	cltq   
     e50:	48 8d 14 c5 00 00 00 	lea    0x0(,%rax,8),%rdx
     e57:	00 
     e58:	48 8d 05 e1 11 20 00 	lea    0x2011e1(%rip),%rax        # 202040 <temp_i>
     e5f:	f2 0f 10 0c 02       	movsd  (%rdx,%rax,1),%xmm1
     e64:	8b 45 a4             	mov    -0x5c(%rbp),%eax
     e67:	c1 e0 02             	shl    $0x2,%eax
     e6a:	83 c0 03             	add    $0x3,%eax
     e6d:	f2 0f 5c c1          	subsd  %xmm1,%xmm0
     e71:	48 98                	cltq   
     e73:	48 8d 14 c5 00 00 00 	lea    0x0(,%rax,8),%rdx
     e7a:	00 
     e7b:	48 8d 05 be 12 20 00 	lea    0x2012be(%rip),%rax        # 202140 <X_i>
     e82:	f2 0f 11 04 02       	movsd  %xmm0,(%rdx,%rax,1)
     e87:	83 45 a4 01          	addl   $0x1,-0x5c(%rbp)
     e8b:	83 7d a4 01          	cmpl   $0x1,-0x5c(%rbp)
     e8f:	0f 8e b5 fd ff ff    	jle    c4a <fft+0x3ac>
     e95:	48 8b 05 04 12 20 00 	mov    0x201204(%rip),%rax        # 2020a0 <X_r>
     e9c:	48 8b 15 05 12 20 00 	mov    0x201205(%rip),%rdx        # 2020a8 <X_r+0x8>
     ea3:	48 89 05 36 12 20 00 	mov    %rax,0x201236(%rip)        # 2020e0 <temp_r>
     eaa:	48 89 15 37 12 20 00 	mov    %rdx,0x201237(%rip)        # 2020e8 <temp_r+0x8>
     eb1:	48 8b 05 f8 11 20 00 	mov    0x2011f8(%rip),%rax        # 2020b0 <X_r+0x10>
     eb8:	48 8b 15 f9 11 20 00 	mov    0x2011f9(%rip),%rdx        # 2020b8 <X_r+0x18>
     ebf:	48 89 05 2a 12 20 00 	mov    %rax,0x20122a(%rip)        # 2020f0 <temp_r+0x10>
     ec6:	48 89 15 2b 12 20 00 	mov    %rdx,0x20122b(%rip)        # 2020f8 <temp_r+0x18>
     ecd:	48 8b 05 ec 11 20 00 	mov    0x2011ec(%rip),%rax        # 2020c0 <X_r+0x20>
     ed4:	48 8b 15 ed 11 20 00 	mov    0x2011ed(%rip),%rdx        # 2020c8 <X_r+0x28>
     edb:	48 89 05 1e 12 20 00 	mov    %rax,0x20121e(%rip)        # 202100 <temp_r+0x20>
     ee2:	48 89 15 1f 12 20 00 	mov    %rdx,0x20121f(%rip)        # 202108 <temp_r+0x28>
     ee9:	48 8b 05 e0 11 20 00 	mov    0x2011e0(%rip),%rax        # 2020d0 <X_r+0x30>
     ef0:	48 8b 15 e1 11 20 00 	mov    0x2011e1(%rip),%rdx        # 2020d8 <X_r+0x38>
     ef7:	48 89 05 12 12 20 00 	mov    %rax,0x201212(%rip)        # 202110 <temp_r+0x30>
     efe:	48 89 15 13 12 20 00 	mov    %rdx,0x201213(%rip)        # 202118 <temp_r+0x38>
     f05:	48 8b 05 34 12 20 00 	mov    0x201234(%rip),%rax        # 202140 <X_i>
     f0c:	48 8b 15 35 12 20 00 	mov    0x201235(%rip),%rdx        # 202148 <X_i+0x8>
     f13:	48 89 05 26 11 20 00 	mov    %rax,0x201126(%rip)        # 202040 <temp_i>
     f1a:	48 89 15 27 11 20 00 	mov    %rdx,0x201127(%rip)        # 202048 <temp_i+0x8>
     f21:	48 8b 05 28 12 20 00 	mov    0x201228(%rip),%rax        # 202150 <X_i+0x10>
     f28:	48 8b 15 29 12 20 00 	mov    0x201229(%rip),%rdx        # 202158 <X_i+0x18>
     f2f:	48 89 05 1a 11 20 00 	mov    %rax,0x20111a(%rip)        # 202050 <temp_i+0x10>
     f36:	48 89 15 1b 11 20 00 	mov    %rdx,0x20111b(%rip)        # 202058 <temp_i+0x18>
     f3d:	48 8b 05 1c 12 20 00 	mov    0x20121c(%rip),%rax        # 202160 <X_i+0x20>
     f44:	48 8b 15 1d 12 20 00 	mov    0x20121d(%rip),%rdx        # 202168 <X_i+0x28>
     f4b:	48 89 05 0e 11 20 00 	mov    %rax,0x20110e(%rip)        # 202060 <temp_i+0x20>
     f52:	48 89 15 0f 11 20 00 	mov    %rdx,0x20110f(%rip)        # 202068 <temp_i+0x28>
     f59:	48 8b 05 10 12 20 00 	mov    0x201210(%rip),%rax        # 202170 <X_i+0x30>
     f60:	48 8b 15 11 12 20 00 	mov    0x201211(%rip),%rdx        # 202178 <X_i+0x38>
     f67:	48 89 05 02 11 20 00 	mov    %rax,0x201102(%rip)        # 202070 <temp_i+0x30>
     f6e:	48 89 15 03 11 20 00 	mov    %rdx,0x201103(%rip)        # 202078 <temp_i+0x38>
     f75:	f2 0f 10 0d 93 11 20 	movsd  0x201193(%rip),%xmm1        # 202110 <temp_r+0x30>
     f7c:	00 
     f7d:	f3 0f 7e 05 eb 06 00 	movq   0x6eb(%rip),%xmm0        # 1670 <w+0xd0>
     f84:	00 
     f85:	66 0f 57 c1          	xorpd  %xmm1,%xmm0
     f89:	f2 0f 11 05 df 10 20 	movsd  %xmm0,0x2010df(%rip)        # 202070 <temp_i+0x30>
     f90:	00 
     f91:	66 0f ef c0          	pxor   %xmm0,%xmm0
     f95:	f2 0f 11 05 73 11 20 	movsd  %xmm0,0x201173(%rip)        # 202110 <temp_r+0x30>
     f9c:	00 
     f9d:	f3 0f 10 05 db 06 00 	movss  0x6db(%rip),%xmm0        # 1680 <w+0xe0>
     fa4:	00 
     fa5:	f3 0f 5a c8          	cvtss2sd %xmm0,%xmm1
     fa9:	f2 0f 10 05 57 11 20 	movsd  0x201157(%rip),%xmm0        # 202108 <temp_r+0x28>
     fb0:	00 
     fb1:	f2 0f 10 15 bf 10 20 	movsd  0x2010bf(%rip),%xmm2        # 202078 <temp_i+0x38>
     fb8:	00 
     fb9:	f2 0f 5c c2          	subsd  %xmm2,%xmm0
     fbd:	f2 0f 59 c1          	mulsd  %xmm1,%xmm0
     fc1:	f2 0f 11 45 b8       	movsd  %xmm0,-0x48(%rbp)
     fc6:	f3 0f 10 0d b2 06 00 	movss  0x6b2(%rip),%xmm1        # 1680 <w+0xe0>
     fcd:	00 
     fce:	f3 0f 10 05 ba 06 00 	movss  0x6ba(%rip),%xmm0        # 1690 <w+0xf0>
     fd5:	00 
     fd6:	0f 57 c1             	xorps  %xmm1,%xmm0
     fd9:	f3 0f 5a c8          	cvtss2sd %xmm0,%xmm1
     fdd:	f2 0f 10 15 23 11 20 	movsd  0x201123(%rip),%xmm2        # 202108 <temp_r+0x28>
     fe4:	00 
     fe5:	f2 0f 10 05 8b 10 20 	movsd  0x20108b(%rip),%xmm0        # 202078 <temp_i+0x38>
     fec:	00 
     fed:	f2 0f 58 c2          	addsd  %xmm2,%xmm0
     ff1:	f2 0f 59 c1          	mulsd  %xmm1,%xmm0
     ff5:	f2 0f 11 45 c0       	movsd  %xmm0,-0x40(%rbp)
     ffa:	f2 0f 10 45 b8       	movsd  -0x48(%rbp),%xmm0
     fff:	f2 0f 11 05 01 11 20 	movsd  %xmm0,0x201101(%rip)        # 202108 <temp_r+0x28>
    1006:	00 
    1007:	f2 0f 10 45 c0       	movsd  -0x40(%rbp),%xmm0
    100c:	f2 0f 11 05 54 10 20 	movsd  %xmm0,0x201054(%rip)        # 202068 <temp_i+0x28>
    1013:	00 
    1014:	f2 0f 10 45 b8       	movsd  -0x48(%rbp),%xmm0
    1019:	f2 0f 11 05 f7 10 20 	movsd  %xmm0,0x2010f7(%rip)        # 202118 <temp_r+0x38>
    1020:	00 
    1021:	f2 0f 10 45 c0       	movsd  -0x40(%rbp),%xmm0
    1026:	f2 0f 11 05 4a 10 20 	movsd  %xmm0,0x20104a(%rip)        # 202078 <temp_i+0x38>
    102d:	00 
    102e:	c7 45 a0 00 00 00 00 	movl   $0x0,-0x60(%rbp)
    1035:	e9 52 01 00 00       	jmpq   118c <fft+0x8ee>
    103a:	8b 45 a0             	mov    -0x60(%rbp),%eax
    103d:	48 98                	cltq   
    103f:	48 8d 14 c5 00 00 00 	lea    0x0(,%rax,8),%rdx
    1046:	00 
    1047:	48 8d 05 92 10 20 00 	lea    0x201092(%rip),%rax        # 2020e0 <temp_r>
    104e:	f2 0f 10 0c 02       	movsd  (%rdx,%rax,1),%xmm1
    1053:	8b 45 a0             	mov    -0x60(%rbp),%eax
    1056:	83 c0 04             	add    $0x4,%eax
    1059:	48 98                	cltq   
    105b:	48 8d 14 c5 00 00 00 	lea    0x0(,%rax,8),%rdx
    1062:	00 
    1063:	48 8d 05 76 10 20 00 	lea    0x201076(%rip),%rax        # 2020e0 <temp_r>
    106a:	f2 0f 10 04 02       	movsd  (%rdx,%rax,1),%xmm0
    106f:	f2 0f 58 c1          	addsd  %xmm1,%xmm0
    1073:	8b 45 a0             	mov    -0x60(%rbp),%eax
    1076:	48 98                	cltq   
    1078:	48 8d 14 c5 00 00 00 	lea    0x0(,%rax,8),%rdx
    107f:	00 
    1080:	48 8d 05 19 10 20 00 	lea    0x201019(%rip),%rax        # 2020a0 <X_r>
    1087:	f2 0f 11 04 02       	movsd  %xmm0,(%rdx,%rax,1)
    108c:	8b 45 a0             	mov    -0x60(%rbp),%eax
    108f:	48 98                	cltq   
    1091:	48 8d 14 c5 00 00 00 	lea    0x0(,%rax,8),%rdx
    1098:	00 
    1099:	48 8d 05 a0 0f 20 00 	lea    0x200fa0(%rip),%rax        # 202040 <temp_i>
    10a0:	f2 0f 10 0c 02       	movsd  (%rdx,%rax,1),%xmm1
    10a5:	8b 45 a0             	mov    -0x60(%rbp),%eax
    10a8:	83 c0 04             	add    $0x4,%eax
    10ab:	48 98                	cltq   
    10ad:	48 8d 14 c5 00 00 00 	lea    0x0(,%rax,8),%rdx
    10b4:	00 
    10b5:	48 8d 05 84 0f 20 00 	lea    0x200f84(%rip),%rax        # 202040 <temp_i>
    10bc:	f2 0f 10 04 02       	movsd  (%rdx,%rax,1),%xmm0
    10c1:	f2 0f 58 c1          	addsd  %xmm1,%xmm0
    10c5:	8b 45 a0             	mov    -0x60(%rbp),%eax
    10c8:	48 98                	cltq   
    10ca:	48 8d 14 c5 00 00 00 	lea    0x0(,%rax,8),%rdx
    10d1:	00 
    10d2:	48 8d 05 67 10 20 00 	lea    0x201067(%rip),%rax        # 202140 <X_i>
    10d9:	f2 0f 11 04 02       	movsd  %xmm0,(%rdx,%rax,1)
    10de:	8b 45 a0             	mov    -0x60(%rbp),%eax
    10e1:	48 98                	cltq   
    10e3:	48 8d 14 c5 00 00 00 	lea    0x0(,%rax,8),%rdx
    10ea:	00 
    10eb:	48 8d 05 ee 0f 20 00 	lea    0x200fee(%rip),%rax        # 2020e0 <temp_r>
    10f2:	f2 0f 10 04 02       	movsd  (%rdx,%rax,1),%xmm0
    10f7:	8b 45 a0             	mov    -0x60(%rbp),%eax
    10fa:	83 c0 04             	add    $0x4,%eax
    10fd:	48 98                	cltq   
    10ff:	48 8d 14 c5 00 00 00 	lea    0x0(,%rax,8),%rdx
    1106:	00 
    1107:	48 8d 05 d2 0f 20 00 	lea    0x200fd2(%rip),%rax        # 2020e0 <temp_r>
    110e:	f2 0f 10 0c 02       	movsd  (%rdx,%rax,1),%xmm1
    1113:	8b 45 a0             	mov    -0x60(%rbp),%eax
    1116:	83 c0 04             	add    $0x4,%eax
    1119:	f2 0f 5c c1          	subsd  %xmm1,%xmm0
    111d:	48 98                	cltq   
    111f:	48 8d 14 c5 00 00 00 	lea    0x0(,%rax,8),%rdx
    1126:	00 
    1127:	48 8d 05 72 0f 20 00 	lea    0x200f72(%rip),%rax        # 2020a0 <X_r>
    112e:	f2 0f 11 04 02       	movsd  %xmm0,(%rdx,%rax,1)
    1133:	8b 45 a0             	mov    -0x60(%rbp),%eax
    1136:	48 98                	cltq   
    1138:	48 8d 14 c5 00 00 00 	lea    0x0(,%rax,8),%rdx
    113f:	00 
    1140:	48 8d 05 f9 0e 20 00 	lea    0x200ef9(%rip),%rax        # 202040 <temp_i>
    1147:	f2 0f 10 04 02       	movsd  (%rdx,%rax,1),%xmm0
    114c:	8b 45 a0             	mov    -0x60(%rbp),%eax
    114f:	83 c0 04             	add    $0x4,%eax
    1152:	48 98                	cltq   
    1154:	48 8d 14 c5 00 00 00 	lea    0x0(,%rax,8),%rdx
    115b:	00 
    115c:	48 8d 05 dd 0e 20 00 	lea    0x200edd(%rip),%rax        # 202040 <temp_i>
    1163:	f2 0f 10 0c 02       	movsd  (%rdx,%rax,1),%xmm1
    1168:	8b 45 a0             	mov    -0x60(%rbp),%eax
    116b:	83 c0 04             	add    $0x4,%eax
    116e:	f2 0f 5c c1          	subsd  %xmm1,%xmm0
    1172:	48 98                	cltq   
    1174:	48 8d 14 c5 00 00 00 	lea    0x0(,%rax,8),%rdx
    117b:	00 
    117c:	48 8d 05 bd 0f 20 00 	lea    0x200fbd(%rip),%rax        # 202140 <X_i>
    1183:	f2 0f 11 04 02       	movsd  %xmm0,(%rdx,%rax,1)
    1188:	83 45 a0 01          	addl   $0x1,-0x60(%rbp)
    118c:	83 7d a0 03          	cmpl   $0x3,-0x60(%rbp)
    1190:	0f 8e a4 fe ff ff    	jle    103a <fft+0x79c>
    1196:	90                   	nop
    1197:	48 8b 45 d8          	mov    -0x28(%rbp),%rax
    119b:	64 48 33 04 25 28 00 	xor    %fs:0x28,%rax
    11a2:	00 00 
    11a4:	74 05                	je     11ab <fft+0x90d>
    11a6:	e8 15 f5 ff ff       	callq  6c0 <__stack_chk_fail@plt>
    11ab:	48 8d 65 e0          	lea    -0x20(%rbp),%rsp
    11af:	41 5c                	pop    %r12
    11b1:	41 5d                	pop    %r13
    11b3:	41 5e                	pop    %r14
    11b5:	41 5f                	pop    %r15
    11b7:	5d                   	pop    %rbp
    11b8:	c3                   	retq   

00000000000011b9 <prepare>:
    11b9:	55                   	push   %rbp
    11ba:	48 89 e5             	mov    %rsp,%rbp
    11bd:	48 83 ec 10          	sub    $0x10,%rsp
    11c1:	bf 40 00 00 00       	mov    $0x40,%edi
    11c6:	e8 45 f5 ff ff       	callq  710 <malloc@plt>
    11cb:	48 89 05 ae 0f 20 00 	mov    %rax,0x200fae(%rip)        # 202180 <my>
    11d2:	bf 40 00 00 00       	mov    $0x40,%edi
    11d7:	e8 34 f5 ff ff       	callq  710 <malloc@plt>
    11dc:	48 89 05 3d 0f 20 00 	mov    %rax,0x200f3d(%rip)        # 202120 <out>
    11e3:	c7 45 fc 00 00 00 00 	movl   $0x0,-0x4(%rbp)
    11ea:	eb 31                	jmp    121d <prepare+0x64>
    11ec:	f2 0f 2a 45 fc       	cvtsi2sdl -0x4(%rbp),%xmm0
    11f1:	f2 0f 58 c0          	addsd  %xmm0,%xmm0
    11f5:	48 8b 05 84 0f 20 00 	mov    0x200f84(%rip),%rax        # 202180 <my>
    11fc:	8b 55 fc             	mov    -0x4(%rbp),%edx
    11ff:	48 63 d2             	movslq %edx,%rdx
    1202:	48 c1 e2 03          	shl    $0x3,%rdx
    1206:	48 01 d0             	add    %rdx,%rax
    1209:	f2 0f 10 0d 8f 04 00 	movsd  0x48f(%rip),%xmm1        # 16a0 <w+0x100>
    1210:	00 
    1211:	f2 0f 58 c1          	addsd  %xmm1,%xmm0
    1215:	f2 0f 11 00          	movsd  %xmm0,(%rax)
    1219:	83 45 fc 01          	addl   $0x1,-0x4(%rbp)
    121d:	8b 05 f1 0d 20 00    	mov    0x200df1(%rip),%eax        # 202014 <FFT_N>
    1223:	39 45 fc             	cmp    %eax,-0x4(%rbp)
    1226:	7c c4                	jl     11ec <prepare+0x33>
    1228:	90                   	nop
    1229:	c9                   	leaveq 
    122a:	c3                   	retq   

000000000000122b <compute>:
    122b:	55                   	push   %rbp
    122c:	48 89 e5             	mov    %rsp,%rbp
    122f:	48 83 ec 10          	sub    $0x10,%rsp
    1233:	c7 45 fc 00 00 00 00 	movl   $0x0,-0x4(%rbp)
    123a:	eb 18                	jmp    1254 <compute+0x29>
    123c:	48 8b 05 3d 0f 20 00 	mov    0x200f3d(%rip),%rax        # 202180 <my>
    1243:	be 08 00 00 00       	mov    $0x8,%esi
    1248:	48 89 c7             	mov    %rax,%rdi
    124b:	e8 4e f6 ff ff       	callq  89e <fft>
    1250:	83 45 fc 01          	addl   $0x1,-0x4(%rbp)
    1254:	8b 05 b6 0d 20 00    	mov    0x200db6(%rip),%eax        # 202010 <Num_Iterations>
    125a:	39 45 fc             	cmp    %eax,-0x4(%rbp)
    125d:	7c dd                	jl     123c <compute+0x11>
    125f:	90                   	nop
    1260:	c9                   	leaveq 
    1261:	c3                   	retq   

0000000000001262 <report>:
    1262:	55                   	push   %rbp
    1263:	48 89 e5             	mov    %rsp,%rbp
    1266:	48 83 ec 30          	sub    $0x30,%rsp
    126a:	66 0f ef c0          	pxor   %xmm0,%xmm0
    126e:	f2 0f 11 45 e8       	movsd  %xmm0,-0x18(%rbp)
    1273:	66 0f ef c0          	pxor   %xmm0,%xmm0
    1277:	f2 0f 11 45 f0       	movsd  %xmm0,-0x10(%rbp)
    127c:	c7 45 e4 00 00 00 00 	movl   $0x0,-0x1c(%rbp)
    1283:	e9 c4 00 00 00       	jmpq   134c <report+0xea>
    1288:	48 8b 05 f1 0e 20 00 	mov    0x200ef1(%rip),%rax        # 202180 <my>
    128f:	8b 55 e4             	mov    -0x1c(%rbp),%edx
    1292:	48 63 d2             	movslq %edx,%rdx
    1295:	48 c1 e2 03          	shl    $0x3,%rdx
    1299:	48 01 d0             	add    %rdx,%rax
    129c:	f2 0f 10 08          	movsd  (%rax),%xmm1
    12a0:	48 8b 05 d9 0e 20 00 	mov    0x200ed9(%rip),%rax        # 202180 <my>
    12a7:	8b 55 e4             	mov    -0x1c(%rbp),%edx
    12aa:	48 63 d2             	movslq %edx,%rdx
    12ad:	48 c1 e2 03          	shl    $0x3,%rdx
    12b1:	48 01 d0             	add    %rdx,%rax
    12b4:	f2 0f 10 00          	movsd  (%rax),%xmm0
    12b8:	f2 0f 59 c1          	mulsd  %xmm1,%xmm0
    12bc:	f2 0f 10 4d e8       	movsd  -0x18(%rbp),%xmm1
    12c1:	f2 0f 58 c1          	addsd  %xmm1,%xmm0
    12c5:	f2 0f 11 45 e8       	movsd  %xmm0,-0x18(%rbp)
    12ca:	8b 45 e4             	mov    -0x1c(%rbp),%eax
    12cd:	48 98                	cltq   
    12cf:	48 8d 14 c5 00 00 00 	lea    0x0(,%rax,8),%rdx
    12d6:	00 
    12d7:	48 8d 05 c2 0d 20 00 	lea    0x200dc2(%rip),%rax        # 2020a0 <X_r>
    12de:	f2 0f 10 0c 02       	movsd  (%rdx,%rax,1),%xmm1
    12e3:	8b 45 e4             	mov    -0x1c(%rbp),%eax
    12e6:	48 98                	cltq   
    12e8:	48 8d 14 c5 00 00 00 	lea    0x0(,%rax,8),%rdx
    12ef:	00 
    12f0:	48 8d 05 a9 0d 20 00 	lea    0x200da9(%rip),%rax        # 2020a0 <X_r>
    12f7:	f2 0f 10 04 02       	movsd  (%rdx,%rax,1),%xmm0
    12fc:	f2 0f 59 c8          	mulsd  %xmm0,%xmm1
    1300:	8b 45 e4             	mov    -0x1c(%rbp),%eax
    1303:	48 98                	cltq   
    1305:	48 8d 14 c5 00 00 00 	lea    0x0(,%rax,8),%rdx
    130c:	00 
    130d:	48 8d 05 2c 0e 20 00 	lea    0x200e2c(%rip),%rax        # 202140 <X_i>
    1314:	f2 0f 10 14 02       	movsd  (%rdx,%rax,1),%xmm2
    1319:	8b 45 e4             	mov    -0x1c(%rbp),%eax
    131c:	48 98                	cltq   
    131e:	48 8d 14 c5 00 00 00 	lea    0x0(,%rax,8),%rdx
    1325:	00 
    1326:	48 8d 05 13 0e 20 00 	lea    0x200e13(%rip),%rax        # 202140 <X_i>
    132d:	f2 0f 10 04 02       	movsd  (%rdx,%rax,1),%xmm0
    1332:	f2 0f 59 c2          	mulsd  %xmm2,%xmm0
    1336:	f2 0f 58 c1          	addsd  %xmm1,%xmm0
    133a:	f2 0f 10 4d f0       	movsd  -0x10(%rbp),%xmm1
    133f:	f2 0f 58 c1          	addsd  %xmm1,%xmm0
    1343:	f2 0f 11 45 f0       	movsd  %xmm0,-0x10(%rbp)
    1348:	83 45 e4 01          	addl   $0x1,-0x1c(%rbp)
    134c:	8b 05 c2 0c 20 00    	mov    0x200cc2(%rip),%eax        # 202014 <FFT_N>
    1352:	39 45 e4             	cmp    %eax,-0x1c(%rbp)
    1355:	0f 8c 2d ff ff ff    	jl     1288 <report+0x26>
    135b:	8b 05 b3 0c 20 00    	mov    0x200cb3(%rip),%eax        # 202014 <FFT_N>
    1361:	f2 0f 2a c0          	cvtsi2sd %eax,%xmm0
    1365:	f2 0f 10 4d f0       	movsd  -0x10(%rbp),%xmm1
    136a:	f2 0f 5e c8          	divsd  %xmm0,%xmm1
    136e:	66 0f 28 c1          	movapd %xmm1,%xmm0
    1372:	f2 0f 10 4d e8       	movsd  -0x18(%rbp),%xmm1
    1377:	f2 0f 5c c8          	subsd  %xmm0,%xmm1
    137b:	66 0f 28 c1          	movapd %xmm1,%xmm0
    137f:	f2 0f 11 45 f8       	movsd  %xmm0,-0x8(%rbp)
    1384:	48 8d 3d 19 02 00 00 	lea    0x219(%rip),%rdi        # 15a4 <w+0x4>
    138b:	e8 20 f3 ff ff       	callq  6b0 <puts@plt>
    1390:	48 8b 45 e8          	mov    -0x18(%rbp),%rax
    1394:	48 89 45 d8          	mov    %rax,-0x28(%rbp)
    1398:	f2 0f 10 45 d8       	movsd  -0x28(%rbp),%xmm0
    139d:	48 8d 3d 19 02 00 00 	lea    0x219(%rip),%rdi        # 15bd <w+0x1d>
    13a4:	b8 01 00 00 00       	mov    $0x1,%eax
    13a9:	e8 22 f3 ff ff       	callq  6d0 <printf@plt>
    13ae:	8b 05 60 0c 20 00    	mov    0x200c60(%rip),%eax        # 202014 <FFT_N>
    13b4:	f2 0f 2a c0          	cvtsi2sd %eax,%xmm0
    13b8:	f2 0f 10 4d f0       	movsd  -0x10(%rbp),%xmm1
    13bd:	f2 0f 5e c8          	divsd  %xmm0,%xmm1
    13c1:	66 0f 28 c1          	movapd %xmm1,%xmm0
    13c5:	48 8d 3d 14 02 00 00 	lea    0x214(%rip),%rdi        # 15e0 <w+0x40>
    13cc:	b8 01 00 00 00       	mov    $0x1,%eax
    13d1:	e8 fa f2 ff ff       	callq  6d0 <printf@plt>
    13d6:	8b 05 38 0c 20 00    	mov    0x200c38(%rip),%eax        # 202014 <FFT_N>
    13dc:	f2 0f 2a c0          	cvtsi2sd %eax,%xmm0
    13e0:	f2 0f 10 4d f0       	movsd  -0x10(%rbp),%xmm1
    13e5:	f2 0f 5e c8          	divsd  %xmm0,%xmm1
    13e9:	66 0f 28 c1          	movapd %xmm1,%xmm0
    13ed:	f2 0f 10 4d e8       	movsd  -0x18(%rbp),%xmm1
    13f2:	f2 0f 5c c8          	subsd  %xmm0,%xmm1
    13f6:	66 0f 28 c1          	movapd %xmm1,%xmm0
    13fa:	48 8d 3d fe 01 00 00 	lea    0x1fe(%rip),%rdi        # 15ff <w+0x5f>
    1401:	b8 01 00 00 00       	mov    $0x1,%eax
    1406:	e8 c5 f2 ff ff       	callq  6d0 <printf@plt>
    140b:	f2 0f 10 05 95 02 00 	movsd  0x295(%rip),%xmm0        # 16a8 <w+0x108>
    1412:	00 
    1413:	66 0f 2e 45 f8       	ucomisd -0x8(%rbp),%xmm0
    1418:	76 09                	jbe    1423 <report+0x1c1>
    141a:	48 8d 05 f4 01 00 00 	lea    0x1f4(%rip),%rax        # 1615 <w+0x75>
    1421:	eb 07                	jmp    142a <report+0x1c8>
    1423:	48 8d 05 fc 01 00 00 	lea    0x1fc(%rip),%rax        # 1626 <w+0x86>
    142a:	48 89 c7             	mov    %rax,%rdi
    142d:	b8 00 00 00 00       	mov    $0x0,%eax
    1432:	e8 99 f2 ff ff       	callq  6d0 <printf@plt>
    1437:	f2 0f 10 05 f1 0b 20 	movsd  0x200bf1(%rip),%xmm0        # 202030 <t2>
    143e:	00 
    143f:	f2 0f 10 0d e1 0b 20 	movsd  0x200be1(%rip),%xmm1        # 202028 <t1>
    1446:	00 
    1447:	f2 0f 5c c1          	subsd  %xmm1,%xmm0
    144b:	8b 05 bf 0b 20 00    	mov    0x200bbf(%rip),%eax        # 202010 <Num_Iterations>
    1451:	f2 0f 2a c8          	cvtsi2sd %eax,%xmm1
    1455:	f2 0f 5e c1          	divsd  %xmm1,%xmm0
    1459:	48 8d 3d d8 01 00 00 	lea    0x1d8(%rip),%rdi        # 1638 <w+0x98>
    1460:	b8 01 00 00 00       	mov    $0x1,%eax
    1465:	e8 66 f2 ff ff       	callq  6d0 <printf@plt>
    146a:	90                   	nop
    146b:	c9                   	leaveq 
    146c:	c3                   	retq   

000000000000146d <main>:
    146d:	55                   	push   %rbp
    146e:	48 89 e5             	mov    %rsp,%rbp
    1471:	48 83 ec 10          	sub    $0x10,%rsp
    1475:	89 7d fc             	mov    %edi,-0x4(%rbp)
    1478:	48 89 75 f0          	mov    %rsi,-0x10(%rbp)
    147c:	b8 00 00 00 00       	mov    $0x0,%eax
    1481:	e8 33 fd ff ff       	callq  11b9 <prepare>
    1486:	be 00 00 00 00       	mov    $0x0,%esi
    148b:	48 8d 3d ee 0b 20 00 	lea    0x200bee(%rip),%rdi        # 202080 <tim>
    1492:	e8 49 f2 ff ff       	callq  6e0 <gettimeofday@plt>
    1497:	48 8b 05 e2 0b 20 00 	mov    0x200be2(%rip),%rax        # 202080 <tim>
    149e:	48 69 d0 40 42 0f 00 	imul   $0xf4240,%rax,%rdx
    14a5:	48 8b 05 dc 0b 20 00 	mov    0x200bdc(%rip),%rax        # 202088 <tim+0x8>
    14ac:	48 01 d0             	add    %rdx,%rax
    14af:	f2 48 0f 2a c0       	cvtsi2sd %rax,%xmm0
    14b4:	f2 0f 11 05 6c 0b 20 	movsd  %xmm0,0x200b6c(%rip)        # 202028 <t1>
    14bb:	00 
    14bc:	b8 00 00 00 00       	mov    $0x0,%eax
    14c1:	e8 65 fd ff ff       	callq  122b <compute>
    14c6:	be 00 00 00 00       	mov    $0x0,%esi
    14cb:	48 8d 3d ae 0b 20 00 	lea    0x200bae(%rip),%rdi        # 202080 <tim>
    14d2:	e8 09 f2 ff ff       	callq  6e0 <gettimeofday@plt>
    14d7:	48 8b 05 a2 0b 20 00 	mov    0x200ba2(%rip),%rax        # 202080 <tim>
    14de:	48 69 d0 40 42 0f 00 	imul   $0xf4240,%rax,%rdx
    14e5:	48 8b 05 9c 0b 20 00 	mov    0x200b9c(%rip),%rax        # 202088 <tim+0x8>
    14ec:	48 01 d0             	add    %rdx,%rax
    14ef:	f2 48 0f 2a c0       	cvtsi2sd %rax,%xmm0
    14f4:	f2 0f 11 05 34 0b 20 	movsd  %xmm0,0x200b34(%rip)        # 202030 <t2>
    14fb:	00 
    14fc:	b8 00 00 00 00       	mov    $0x0,%eax
    1501:	e8 5c fd ff ff       	callq  1262 <report>
    1506:	b8 00 00 00 00       	mov    $0x0,%eax
    150b:	c9                   	leaveq 
    150c:	c3                   	retq   
    150d:	0f 1f 00             	nopl   (%rax)

0000000000001510 <__libc_csu_init>:
    1510:	41 57                	push   %r15
    1512:	41 56                	push   %r14
    1514:	49 89 d7             	mov    %rdx,%r15
    1517:	41 55                	push   %r13
    1519:	41 54                	push   %r12
    151b:	4c 8d 25 66 08 20 00 	lea    0x200866(%rip),%r12        # 201d88 <__frame_dummy_init_array_entry>
    1522:	55                   	push   %rbp
    1523:	48 8d 2d 66 08 20 00 	lea    0x200866(%rip),%rbp        # 201d90 <__init_array_end>
    152a:	53                   	push   %rbx
    152b:	41 89 fd             	mov    %edi,%r13d
    152e:	49 89 f6             	mov    %rsi,%r14
    1531:	4c 29 e5             	sub    %r12,%rbp
    1534:	48 83 ec 08          	sub    $0x8,%rsp
    1538:	48 c1 fd 03          	sar    $0x3,%rbp
    153c:	e8 47 f1 ff ff       	callq  688 <_init>
    1541:	48 85 ed             	test   %rbp,%rbp
    1544:	74 20                	je     1566 <__libc_csu_init+0x56>
    1546:	31 db                	xor    %ebx,%ebx
    1548:	0f 1f 84 00 00 00 00 	nopl   0x0(%rax,%rax,1)
    154f:	00 
    1550:	4c 89 fa             	mov    %r15,%rdx
    1553:	4c 89 f6             	mov    %r14,%rsi
    1556:	44 89 ef             	mov    %r13d,%edi
    1559:	41 ff 14 dc          	callq  *(%r12,%rbx,8)
    155d:	48 83 c3 01          	add    $0x1,%rbx
    1561:	48 39 dd             	cmp    %rbx,%rbp
    1564:	75 ea                	jne    1550 <__libc_csu_init+0x40>
    1566:	48 83 c4 08          	add    $0x8,%rsp
    156a:	5b                   	pop    %rbx
    156b:	5d                   	pop    %rbp
    156c:	41 5c                	pop    %r12
    156e:	41 5d                	pop    %r13
    1570:	41 5e                	pop    %r14
    1572:	41 5f                	pop    %r15
    1574:	c3                   	retq   
    1575:	90                   	nop
    1576:	66 2e 0f 1f 84 00 00 	nopw   %cs:0x0(%rax,%rax,1)
    157d:	00 00 00 

0000000000001580 <__libc_csu_fini>:
    1580:	f3 c3                	repz retq 

Disassembly of section .fini:

0000000000001584 <_fini>:
    1584:	48 83 ec 08          	sub    $0x8,%rsp
    1588:	48 83 c4 08          	add    $0x8,%rsp
    158c:	c3                   	retq   
